(dp1
I24
(dp2
S'becameSuitTime'
p3
F1409447666.1659999
sS'savedBy'
p4
NsS'track'
p5
S'c'
sS'numFloors'
p6
I2
sS'difficulty'
p7
I3
sS'state'
p8
S'suit'
p9
sS'block'
p10
I24
ssI28
(dp11
g3
F1409449894.4979999
sg4
Nsg5
S'c'
sg6
I3
sg7
I2
sg8
g9
sg10
I28
ssI20
(dp12
g3
F1409449923.2279999
sg4
Nsg5
S'c'
sg6
I2
sg7
I2
sg8
g9
sg10
I20
ss.
