(dp1
I31
(dp2
S'becameSuitTime'
p3
F1409450207.1670001
sS'savedBy'
p4
NsS'track'
p5
S'c'
sS'numFloors'
p6
I2
sS'difficulty'
p7
I3
sS'state'
p8
S'suit'
p9
sS'block'
p10
I31
ssI32
(dp11
g3
F1409450232.9330001
sg4
Nsg5
S'l'
sg6
I4
sg7
I4
sg8
g9
sg10
I32
ssI19
(dp12
g3
F1409448707.0139999
sg4
Nsg5
S'l'
sg6
I5
sg7
I6
sg8
g9
sg10
I19
ssI29
(dp13
g3
F1409450205.6570001
sg4
Nsg5
S'c'
sg6
I4
sg7
I5
sg8
g9
sg10
I29
ssI23
(dp14
g3
F1409452134.8440001
sg4
Nsg5
S'l'
sg6
I2
sg7
I3
sg8
g9
sg10
I23
ss.
