(dp1
I19
(dp2
S'becameSuitTime'
p3
F1409447667.141
sS'savedBy'
p4
NsS'track'
p5
S'm'
sS'numFloors'
p6
I4
sS'difficulty'
p7
I4
sS'state'
p8
S'suit'
p9
sS'block'
p10
I19
ssI13
(dp11
g3
F1409449960.7090001
sg4
Nsg5
S'm'
sg6
I3
sg7
I5
sg8
g9
sg10
I13
ss.
